; Function Attrs: mustprogress uwtable
define internal noundef zeroext i1 @"_ZNSt17_Function_handlerIFvRKN2cv5RangeEEZNKS0_7details10Chessboard10detectImplERKNS0_3MatERSt6vectorIS7_SaIS7_EES9_E3$_0E10_M_managerERSt9_Any_dataRKSG_St18_Manager_operation"(ptr noundef nonnull align 8 captures(none) dereferenceable(16) %0, ptr noundef nonnull readonly align 8 captures(none) dereferenceable(16) %1, i32 noundef %2) #5 align 2 {
  switch i32 %2, label %"_ZNSt14_Function_base13_Base_managerIZNK2cv7details10Chessboard10detectImplERKNS1_3MatERSt6vectorIS4_SaIS4_EES6_E3$_0E10_M_managerERSt9_Any_dataRKSD_St18_Manager_operation.exit" [
    i32 0, label %4
    i32 1, label %5
    i32 3, label %8
    i32 2, label %6
  ]

4:                                                ; preds = %3
  store ptr @"_ZTIZNK2cv7details10Chessboard10detectImplERKNS_3MatERSt6vectorIS2_SaIS2_EES4_E3$_0", ptr %0, align 8, !tbaa !884
  br label %"_ZNSt14_Function_base13_Base_managerIZNK2cv7details10Chessboard10detectImplERKNS1_3MatERSt6vectorIS4_SaIS4_EES6_E3$_0E10_M_managerERSt9_Any_dataRKSD_St18_Manager_operation.exit"

5:                                                ; preds = %3
  %.val = load ptr, ptr %1, align 8, !tbaa !91
  store ptr %.val, ptr %0, align 8, !tbaa !91
  br label %"_ZNSt14_Function_base13_Base_managerIZNK2cv7details10Chessboard10detectImplERKNS1_3MatERSt6vectorIS4_SaIS4_EES6_E3$_0E10_M_managerERSt9_Any_dataRKSD_St18_Manager_operation.exit"

6:                                                ; preds = %3
  %.val6 = load ptr, ptr %1, align 8
  %7 = tail call noalias noundef nonnull dereferenceable(64) ptr @_Znwm(i64 noundef 64) #39
  tail call void @llvm.memcpy.p0.p0.i64(ptr noundef nonnull align 16 dereferenceable(64) %7, ptr noundef nonnull readonly align 8 dereferenceable(64) %.val6, i64 64, i1 false), !tbaa.struct !950
  store ptr %7, ptr %0, align 8, !tbaa !91
  br label %"_ZNSt14_Function_base13_Base_managerIZNK2cv7details10Chessboard10detectImplERKNS1_3MatERSt6vectorIS4_SaIS4_EES6_E3$_0E10_M_managerERSt9_Any_dataRKSD_St18_Manager_operation.exit"

8:                                                ; preds = %3
  %.val7.i = load ptr, ptr %0, align 8, !tbaa !91
  %9 = icmp eq ptr %.val7.i, null
  br i1 %9, label %"_ZNSt14_Function_base13_Base_managerIZNK2cv7details10Chessboard10detectImplERKNS1_3MatERSt6vectorIS4_SaIS4_EES6_E3$_0E10_M_managerERSt9_Any_dataRKSD_St18_Manager_operation.exit", label %10

10:                                               ; preds = %8
  tail call void @_ZdlPv(ptr noundef nonnull %.val7.i) #38
  br label %"_ZNSt14_Function_base13_Base_managerIZNK2cv7details10Chessboard10detectImplERKNS1_3MatERSt6vectorIS4_SaIS4_EES6_E3$_0E10_M_managerERSt9_Any_dataRKSD_St18_Manager_operation.exit"

"_ZNSt14_Function_base13_Base_managerIZNK2cv7details10Chessboard10detectImplERKNS1_3MatERSt6vectorIS4_SaIS4_EES6_E3$_0E10_M_managerERSt9_Any_dataRKSD_St18_Manager_operation.exit": ; preds = %3, %10, %8, %6, %5, %4
  ret i1 false
}